target datalayout = "e-m:e-p270:32:32-p271:32:32-p272:64:64-i64:64-i128:128-f80:128-n8:16:32:64-S128"
target triple = "x86_64-pc-linux-gnu"

%"class.icu_77::UObject" = type { ptr }
%"class.icu_77::UnicodeSet" = type <{ %"class.icu_77::UnicodeFilter", ptr, i32, i32, i8, [7 x i8], ptr, ptr, i32, [4 x i8], ptr, i32, [4 x i8], ptr, ptr, [25 x i32], [4 x i8] }>
%"class.icu_77::UnicodeFilter" = type { %"class.icu_77::UnicodeFunctor", %"class.icu_77::UnicodeMatcher" }
%"class.icu_77::UnicodeFunctor" = type { %"class.icu_77::UObject" }
%"class.icu_77::UnicodeMatcher" = type { ptr }

; Function Attrs: inlinehint mustprogress nounwind uwtable
define internal noundef signext i8 @_ZL9U_FAILURE10UErrorCode(i32 noundef %0) #2 {
  %2 = alloca i32, align 4
  store i32 %0, ptr %2, align 4, !tbaa !30
  %3 = load i32, ptr %2, align 4, !tbaa !30
  %4 = icmp sgt i32 %3, 0
  %5 = zext i1 %4 to i8
  ret i8 %5
}

; Function Attrs: mustprogress uwtable
define void @_ZN6icu_779SpoofImpl14addScriptCharsEPKcPNS_10UnicodeSetER10UErrorCode(ptr noundef nonnull align 8 dereferenceable(44) %0, ptr noundef %1, ptr noundef %2, ptr noundef nonnull align 4 dereferenceable(4) %3) #1 align 2 personality ptr @__gxx_personality_v0 {
  %5 = alloca ptr, align 8
  %6 = alloca ptr, align 8
  %7 = alloca ptr, align 8
  %8 = alloca ptr, align 8
  %9 = alloca [30 x i32], align 16
  %10 = alloca i32, align 4
  %11 = alloca i32, align 4
  %12 = alloca %"class.icu_77::UnicodeSet", align 8
  %13 = alloca i32, align 4
  %14 = alloca ptr, align 8
  %15 = alloca i32, align 4
  store ptr %0, ptr %5, align 8, !tbaa !3
  store ptr %1, ptr %6, align 8, !tbaa !47
  store ptr %2, ptr %7, align 8, !tbaa !32
  store ptr %3, ptr %8, align 8, !tbaa !10
  call void @llvm.lifetime.start.p0(i64 120, ptr %9) #15
  call void @llvm.lifetime.start.p0(i64 4, ptr %10) #15
  %16 = load ptr, ptr %6, align 8, !tbaa !47
  %17 = getelementptr inbounds [30 x i32], ptr %9, i64 0, i64 0
  %18 = load ptr, ptr %8, align 8, !tbaa !10
  %19 = call i32 @uscript_getCode_77(ptr noundef %16, ptr noundef %17, i32 noundef 30, ptr noundef %18)
  store i32 %19, ptr %10, align 4, !tbaa !48
  %20 = load ptr, ptr %8, align 8, !tbaa !10
  %21 = load i32, ptr %20, align 4, !tbaa !30
  %22 = call noundef signext i8 @_ZL9U_FAILURE10UErrorCode(i32 noundef %21)
  %23 = icmp ne i8 %22, 0
  br i1 %23, label %24, label %25

24:                                               ; preds = %4
  store i32 1, ptr %11, align 4
  br label %55

25:                                               ; preds = %4
  %26 = load ptr, ptr %8, align 8, !tbaa !10
  %27 = load i32, ptr %26, align 4, !tbaa !30
  %28 = icmp eq i32 %27, -127
  br i1 %28, label %29, label %31

29:                                               ; preds = %25
  %30 = load ptr, ptr %8, align 8, !tbaa !10
  store i32 1, ptr %30, align 4, !tbaa !30
  store i32 1, ptr %11, align 4
  br label %55

31:                                               ; preds = %25
  call void @llvm.lifetime.start.p0(i64 200, ptr %12) #15
  call void @_ZN6icu_7710UnicodeSetC1Ev(ptr noundef nonnull align 8 dereferenceable(200) %12)
  call void @llvm.lifetime.start.p0(i64 4, ptr %13) #15
  store i32 0, ptr %13, align 4, !tbaa !48
  br label %32

32:                                               ; preds = %47, %31
  %33 = load i32, ptr %13, align 4, !tbaa !48
  %34 = load i32, ptr %10, align 4, !tbaa !48
  %35 = icmp slt i32 %33, %34
  br i1 %35, label %36, label %54

36:                                               ; preds = %32
  %37 = load i32, ptr %13, align 4, !tbaa !48
  %38 = sext i32 %37 to i64
  %39 = getelementptr inbounds [30 x i32], ptr %9, i64 0, i64 %38
  %40 = load i32, ptr %39, align 4, !tbaa !53
  %41 = load ptr, ptr %8, align 8, !tbaa !10
  %42 = invoke noundef nonnull align 8 dereferenceable(200) ptr @_ZN6icu_7710UnicodeSet21applyIntPropertyValueE9UPropertyiR10UErrorCode(ptr noundef nonnull align 8 dereferenceable(200) %12, i32 noundef 4106, i32 noundef %40, ptr noundef nonnull align 4 dereferenceable(4) %41)
          to label %43 unwind label %50

43:                                               ; preds = %36
  %44 = load ptr, ptr %7, align 8, !tbaa !32
  %45 = invoke noundef nonnull align 8 dereferenceable(200) ptr @_ZN6icu_7710UnicodeSet6addAllERKS0_(ptr noundef nonnull align 8 dereferenceable(200) %44, ptr noundef nonnull align 8 dereferenceable(200) %12)
          to label %46 unwind label %50

46:                                               ; preds = %43
  br label %47

47:                                               ; preds = %46
  %48 = load i32, ptr %13, align 4, !tbaa !48
  %49 = add nsw i32 %48, 1
  store i32 %49, ptr %13, align 4, !tbaa !48
  br label %32, !llvm.loop !55

50:                                               ; preds = %43, %36
  %51 = landingpad { ptr, i32 }
          cleanup
  %52 = extractvalue { ptr, i32 } %51, 0
  store ptr %52, ptr %14, align 8
  %53 = extractvalue { ptr, i32 } %51, 1
  store i32 %53, ptr %15, align 4
  call void @llvm.lifetime.end.p0(i64 4, ptr %13) #15
  call void @_ZN6icu_7710UnicodeSetD1Ev(ptr noundef nonnull align 8 dereferenceable(200) %12) #15
  call void @llvm.lifetime.end.p0(i64 200, ptr %12) #15
  call void @llvm.lifetime.end.p0(i64 4, ptr %10) #15
  call void @llvm.lifetime.end.p0(i64 120, ptr %9) #15
  br label %58

54:                                               ; preds = %32
  call void @llvm.lifetime.end.p0(i64 4, ptr %13) #15
  call void @_ZN6icu_7710UnicodeSetD1Ev(ptr noundef nonnull align 8 dereferenceable(200) %12) #15
  call void @llvm.lifetime.end.p0(i64 200, ptr %12) #15
  store i32 0, ptr %11, align 4
  br label %55

55:                                               ; preds = %54, %29, %24
  call void @llvm.lifetime.end.p0(i64 4, ptr %10) #15
  call void @llvm.lifetime.end.p0(i64 120, ptr %9) #15
  %56 = load i32, ptr %11, align 4
  switch i32 %56, label %63 [
    i32 0, label %57
    i32 1, label %57
  ]

57:                                               ; preds = %55, %55
  ret void

58:                                               ; preds = %50
  %59 = load ptr, ptr %14, align 8
  %60 = load i32, ptr %15, align 4
  %61 = insertvalue { ptr, i32 } poison, ptr %59, 0
  %62 = insertvalue { ptr, i32 } %61, i32 %60, 1
  resume { ptr, i32 } %62

63:                                               ; preds = %55
  unreachable
}