; Function Attrs: mustprogress uwtable
define void @_ZN6icu_779SpoofImpl14addScriptCharsEPKcPNS_10UnicodeSetER10UErrorCode(ptr nonnull readnone align 8 captures(none) %0, ptr noundef %1, ptr noundef %2, ptr noundef nonnull align 4 dereferenceable(4) %3) local_unnamed_addr #1 align 2 personality ptr @__gxx_personality_v0 {
  %5 = alloca [30 x i32], align 16
  %6 = alloca %"class.icu_77::UnicodeSet", align 8
  call void @llvm.lifetime.start.p0(i64 120, ptr nonnull %5) #21
  %7 = call i32 @uscript_getCode_77(ptr noundef %1, ptr noundef nonnull %5, i32 noundef 30, ptr noundef nonnull %3)
  %8 = load i32, ptr %3, align 4, !tbaa !19
  %9 = icmp slt i32 %8, 1
  br i1 %9, label %10, label %23

10:                                               ; preds = %4
  %11 = icmp eq i32 %8, -127
  br i1 %11, label %12, label %13

12:                                               ; preds = %10
  store i32 1, ptr %3, align 4, !tbaa !19
  br label %23

13:                                               ; preds = %10
  call void @llvm.lifetime.start.p0(i64 200, ptr nonnull %6) #21
  call void @_ZN6icu_7710UnicodeSetC1Ev(ptr noundef nonnull align 8 dereferenceable(200) %6)
  %14 = icmp sgt i32 %7, 0
  br i1 %14, label %.lr.ph.preheader, label %._crit_edge

.lr.ph.preheader:                                 ; preds = %13
  %wide.trip.count = zext nneg i32 %7 to i64
  br label %.lr.ph

.lr.ph:                                           ; preds = %.lr.ph.preheader, %20
  %indvars.iv = phi i64 [ 0, %.lr.ph.preheader ], [ %indvars.iv.next, %20 ]
  %15 = getelementptr inbounds nuw [30 x i32], ptr %5, i64 0, i64 %indvars.iv
  %16 = load i32, ptr %15, align 4, !tbaa !43
  %17 = invoke noundef nonnull align 8 dereferenceable(200) ptr @_ZN6icu_7710UnicodeSet21applyIntPropertyValueE9UPropertyiR10UErrorCode(ptr noundef nonnull align 8 dereferenceable(200) %6, i32 noundef 4106, i32 noundef %16, ptr noundef nonnull align 4 dereferenceable(4) %3)
          to label %18 unwind label %21

18:                                               ; preds = %.lr.ph
  %19 = invoke noundef nonnull align 8 dereferenceable(200) ptr @_ZN6icu_7710UnicodeSet6addAllERKS0_(ptr noundef nonnull align 8 dereferenceable(200) %2, ptr noundef nonnull align 8 dereferenceable(200) %6)
          to label %20 unwind label %21

20:                                               ; preds = %18
  %indvars.iv.next = add nuw nsw i64 %indvars.iv, 1
  %exitcond.not = icmp eq i64 %indvars.iv.next, %wide.trip.count
  br i1 %exitcond.not, label %._crit_edge, label %.lr.ph, !llvm.loop !45

21:                                               ; preds = %18, %.lr.ph
  %22 = landingpad { ptr, i32 }
          cleanup
  call void @_ZN6icu_7710UnicodeSetD1Ev(ptr noundef nonnull align 8 dereferenceable(200) %6) #21
  call void @llvm.lifetime.end.p0(i64 200, ptr nonnull %6) #21
  call void @llvm.lifetime.end.p0(i64 120, ptr nonnull %5) #21
  resume { ptr, i32 } %22

._crit_edge:                                      ; preds = %20, %13
  call void @_ZN6icu_7710UnicodeSetD1Ev(ptr noundef nonnull align 8 dereferenceable(200) %6) #21
  call void @llvm.lifetime.end.p0(i64 200, ptr nonnull %6) #21
  br label %23

23:                                               ; preds = %4, %._crit_edge, %12
  call void @llvm.lifetime.end.p0(i64 120, ptr nonnull %5) #21
  ret void
}